target datalayout = "e-m:e-p270:32:32-p271:32:32-p272:64:64-i64:64-i128:128-f80:128-n8:16:32:64-S128"
target triple = "x86_64-pc-linux-gnu"

%"struct.realclosure::mpbq_config::interval" = type { %class.mpbq, %class.mpbq, i8, i8, i8, i8, [4 x i8] }
%class.mpbq = type <{ %class.mpz, i32, [4 x i8] }>
%class.mpz = type { i32, i8, ptr }
%"class.realclosure::manager" = type { ptr }
%class.im_default_config = type { ptr }
%"struct.realclosure::mpbq_config" = type { ptr }
%class.mpq = type { %class.mpz, %class.mpz }
%"struct.realclosure::manager::imp" = type <{ ptr, ptr, i8, [7 x i8], ptr, %class.mpz_matrix_manager, %"struct.realclosure::mpbq_config::numeral_manager", %class.interval_manager, %class.interval_manager.0, [3 x %class.ptr_vector], ptr, %"struct.realclosure::mk_pi_interval", ptr, %"struct.realclosure::mk_e_interval", ptr, %class.ptr_vector.1, %class.ptr_vector, i8, i8, [2 x i8], i32, i32, i32, %class._scoped_numeral, %class._scoped_numeral, i8, [3 x i8], i32, i8, [7 x i8] }>
%class.mpz_matrix_manager = type { ptr, ptr }
%"struct.realclosure::mpbq_config::numeral_manager" = type <{ %class.mpbq_manager, i32, i8, [3 x i8] }>
%class.mpbq_manager = type { ptr, %class.mpz, %class.mpz, %class.mpbq, %class.mpz, %class.mpz, %class.mpz, %class.mpbq, %class.mpbq, %class.mpz, %class.mpz, %class.mpz }
%class.interval_manager = type { ptr, %class.im_default_config, %class.mpq, %class.mpq, %class.mpq, %class.mpq, %class.mpq, %class.mpq, %class.mpq, %class.mpq, %class.mpq, i32, [4 x i8], %"struct.im_default_config::interval", %"struct.im_default_config::interval", %"struct.im_default_config::interval", %"struct.im_default_config::interval" }
%"struct.im_default_config::interval" = type <{ %class.mpq, %class.mpq, i8, [7 x i8] }>
%class.interval_manager.0 = type { ptr, %"struct.realclosure::mpbq_config", %class.mpbq, %class.mpbq, %class.mpbq, %class.mpbq, %class.mpbq, %class.mpbq, %class.mpbq, %class.mpbq, %class.mpbq, i32, [4 x i8], %"struct.realclosure::mpbq_config::interval", %"struct.realclosure::mpbq_config::interval", %"struct.realclosure::mpbq_config::interval", %"struct.realclosure::mpbq_config::interval" }
%"struct.realclosure::mk_pi_interval" = type { %"class.realclosure::mk_interval" }
%"class.realclosure::mk_interval" = type { ptr }
%"struct.realclosure::mk_e_interval" = type { %"class.realclosure::mk_interval" }
%class.ptr_vector.1 = type { %class.vector.2 }
%class.vector.2 = type { ptr }
%class.ptr_vector = type { %class.vector }
%class.vector = type { ptr }
%class._scoped_numeral = type { ptr, %class.mpbq }
%class.symbol = type { ptr }

; Function Attrs: mustprogress nounwind uwtable
define linkonce_odr hidden noundef nonnull align 8 dereferenceable(8) ptr @_ZN6vectorIPN11realclosure9extensionELb0EjEixEj(ptr noundef nonnull align 8 dereferenceable(8) %0, i32 noundef %1) #4 comdat align 2 {
  %3 = alloca ptr, align 8
  %4 = alloca i32, align 4
  store ptr %0, ptr %3, align 8, !tbaa !178
  store i32 %1, ptr %4, align 4, !tbaa !82
  %5 = load ptr, ptr %3, align 8
  %6 = getelementptr inbounds nuw %class.vector, ptr %5, i32 0, i32 0
  %7 = load ptr, ptr %6, align 8, !tbaa !193
  %8 = load i32, ptr %4, align 4, !tbaa !82
  %9 = zext i32 %8 to i64
  %10 = getelementptr inbounds nuw ptr, ptr %7, i64 %9
  ret ptr %10
}

; Function Attrs: mustprogress nounwind uwtable
define linkonce_odr hidden void @_ZN6vectorIPN11realclosure9extensionELb0EjE8pop_backEv(ptr noundef nonnull align 8 dereferenceable(8) %0) #4 comdat align 2 {
  %2 = alloca ptr, align 8
  store ptr %0, ptr %2, align 8, !tbaa !178
  %3 = load ptr, ptr %2, align 8
  %4 = getelementptr inbounds nuw %class.vector, ptr %3, i32 0, i32 0
  %5 = load ptr, ptr %4, align 8, !tbaa !193
  %6 = getelementptr inbounds i32, ptr %5, i64 -1
  %7 = load i32, ptr %6, align 4, !tbaa !82
  %8 = add i32 %7, -1
  store i32 %8, ptr %6, align 4, !tbaa !82
  ret void
}

; Function Attrs: mustprogress uwtable
define linkonce_odr hidden noundef nonnull align 8 dereferenceable(8) ptr @_ZN6vectorIPN11realclosure9extensionELb0EjE4backEv(ptr noundef nonnull align 8 dereferenceable(8) %0) #6 comdat align 2 {
  %2 = alloca ptr, align 8
  store ptr %0, ptr %2, align 8, !tbaa !178
  %3 = load ptr, ptr %2, align 8
  %4 = call noundef i32 @_ZNK6vectorIPN11realclosure9extensionELb0EjE4sizeEv(ptr noundef nonnull align 8 dereferenceable(8) %3)
  %5 = sub i32 %4, 1
  %6 = call noundef nonnull align 8 dereferenceable(8) ptr @_ZN6vectorIPN11realclosure9extensionELb0EjEixEj(ptr noundef nonnull align 8 dereferenceable(8) %3, i32 noundef %5)
  ret ptr %6
}

; Function Attrs: mustprogress nounwind uwtable
define linkonce_odr hidden noundef zeroext i1 @_ZNK6vectorIPN11realclosure9extensionELb0EjE5emptyEv(ptr noundef nonnull align 8 dereferenceable(8) %0) #4 comdat align 2 {
  %2 = alloca ptr, align 8
  store ptr %0, ptr %2, align 8, !tbaa !178
  %3 = load ptr, ptr %2, align 8
  %4 = getelementptr inbounds nuw %class.vector, ptr %3, i32 0, i32 0
  %5 = load ptr, ptr %4, align 8, !tbaa !193
  %6 = icmp eq ptr %5, null
  br i1 %6, label %13, label %7

7:                                                ; preds = %1
  %8 = getelementptr inbounds nuw %class.vector, ptr %3, i32 0, i32 0
  %9 = load ptr, ptr %8, align 8, !tbaa !193
  %10 = getelementptr inbounds i32, ptr %9, i64 -1
  %11 = load i32, ptr %10, align 4, !tbaa !82
  %12 = icmp eq i32 %11, 0
  br label %13

13:                                               ; preds = %7, %1
  %14 = phi i1 [ true, %1 ], [ %12, %7 ]
  ret i1 %14
}

; Function Attrs: mustprogress nounwind uwtable
define linkonce_odr hidden noundef i32 @_ZNK6vectorIPN11realclosure9extensionELb0EjE4sizeEv(ptr noundef nonnull align 8 dereferenceable(8) %0) #4 comdat align 2 {
  %2 = alloca i32, align 4
  %3 = alloca ptr, align 8
  store ptr %0, ptr %3, align 8, !tbaa !178
  %4 = load ptr, ptr %3, align 8
  %5 = getelementptr inbounds nuw %class.vector, ptr %4, i32 0, i32 0
  %6 = load ptr, ptr %5, align 8, !tbaa !193
  %7 = icmp eq ptr %6, null
  br i1 %7, label %8, label %9

8:                                                ; preds = %1
  store i32 0, ptr %2, align 4
  br label %14

9:                                                ; preds = %1
  %10 = getelementptr inbounds nuw %class.vector, ptr %4, i32 0, i32 0
  %11 = load ptr, ptr %10, align 8, !tbaa !193
  %12 = getelementptr inbounds i32, ptr %11, i64 -1
  %13 = load i32, ptr %12, align 4, !tbaa !82
  store i32 %13, ptr %2, align 4
  br label %14

14:                                               ; preds = %9, %8
  %15 = load i32, ptr %2, align 4
  ret i32 %15
}

; Function Attrs: mustprogress uwtable
define linkonce_odr hidden void @_ZN11realclosure7manager3imp7cleanupENS_9extension4kindE(ptr noundef nonnull align 8 dereferenceable(1497) %0, i32 noundef %1) #6 comdat align 2 {
  %3 = alloca ptr, align 8
  %4 = alloca i32, align 4
  %5 = alloca ptr, align 8
  store ptr %0, ptr %3, align 8, !tbaa !28
  store i32 %1, ptr %4, align 4, !tbaa !268
  %6 = load ptr, ptr %3, align 8
  call void @llvm.lifetime.start.p0(i64 8, ptr %5) #3
  %7 = getelementptr inbounds nuw %"struct.realclosure::manager::imp", ptr %6, i32 0, i32 9
  %8 = load i32, ptr %4, align 4, !tbaa !268
  %9 = zext i32 %8 to i64
  %10 = getelementptr inbounds nuw [3 x %class.ptr_vector], ptr %7, i64 0, i64 %9
  store ptr %10, ptr %5, align 8, !tbaa !162
  br label %11

11:                                               ; preds = %21, %2
  %12 = load ptr, ptr %5, align 8, !tbaa !162
  %13 = call noundef zeroext i1 @_ZNK6vectorIPN11realclosure9extensionELb0EjE5emptyEv(ptr noundef nonnull align 8 dereferenceable(8) %12)
  br i1 %13, label %19, label %14

14:                                               ; preds = %11
  %15 = load ptr, ptr %5, align 8, !tbaa !162
  %16 = call noundef nonnull align 8 dereferenceable(8) ptr @_ZN6vectorIPN11realclosure9extensionELb0EjE4backEv(ptr noundef nonnull align 8 dereferenceable(8) %15)
  %17 = load ptr, ptr %16, align 8, !tbaa !13
  %18 = icmp eq ptr %17, null
  br label %19

19:                                               ; preds = %14, %11
  %20 = phi i1 [ false, %11 ], [ %18, %14 ]
  br i1 %20, label %21, label %23

21:                                               ; preds = %19
  %22 = load ptr, ptr %5, align 8, !tbaa !162
  call void @_ZN6vectorIPN11realclosure9extensionELb0EjE8pop_backEv(ptr noundef nonnull align 8 dereferenceable(8) %22)
  br label %11, !llvm.loop !270

23:                                               ; preds = %19
  call void @llvm.lifetime.end.p0(i64 8, ptr %5) #3
  ret void
}

; Function Attrs: mustprogress nounwind uwtable
define linkonce_odr hidden void @_ZN6symbolC2Ej(ptr noundef nonnull align 8 dereferenceable(8) %0, i32 noundef %1) unnamed_addr #4 comdat align 2 {
  %3 = alloca ptr, align 8
  %4 = alloca i32, align 4
  store ptr %0, ptr %3, align 8, !tbaa !265
  store i32 %1, ptr %4, align 4, !tbaa !82
  %5 = load ptr, ptr %3, align 8
  %6 = getelementptr inbounds nuw %class.symbol, ptr %5, i32 0, i32 0
  %7 = load i32, ptr %4, align 4, !tbaa !82
  %8 = zext i32 %7 to i64
  %9 = shl i64 %8, 3
  %10 = or i64 %9, 1
  %11 = inttoptr i64 %10 to ptr
  store ptr %11, ptr %6, align 8, !tbaa !304
  ret void
}

; Function Attrs: mustprogress uwtable
define linkonce_odr hidden noundef i32 @_ZN11realclosure7manager3imp23next_transcendental_idxEv(ptr noundef nonnull align 8 dereferenceable(1497) %0) #6 comdat align 2 {
  %2 = alloca ptr, align 8
  store ptr %0, ptr %2, align 8, !tbaa !28
  %3 = load ptr, ptr %2, align 8
  call void @_ZN11realclosure7manager3imp7cleanupENS_9extension4kindE(ptr noundef nonnull align 8 dereferenceable(1497) %3, i32 noundef 0)
  %4 = getelementptr inbounds nuw %"struct.realclosure::manager::imp", ptr %3, i32 0, i32 9
  %5 = getelementptr inbounds nuw [3 x %class.ptr_vector], ptr %4, i64 0, i64 0
  %6 = call noundef i32 @_ZNK6vectorIPN11realclosure9extensionELb0EjE4sizeEv(ptr noundef nonnull align 8 dereferenceable(8) %5)
  ret i32 %6
}

; Function Attrs: mustprogress uwtable
define linkonce_odr hidden void @_ZN11realclosure7manager3imp17mk_transcendentalERNS_11mk_intervalERNS_3numE(ptr noundef nonnull align 8 dereferenceable(1497) %0, ptr noundef nonnull align 8 dereferenceable(8) %1, ptr noundef nonnull align 8 dereferenceable(8) %2) #6 comdat align 2 {
  %4 = alloca ptr, align 8
  %5 = alloca ptr, align 8
  %6 = alloca ptr, align 8
  %7 = alloca %class.symbol, align 8
  %8 = alloca %class.symbol, align 8
  store ptr %0, ptr %4, align 8, !tbaa !28
  store ptr %1, ptr %5, align 8, !tbaa !80
  store ptr %2, ptr %6, align 8, !tbaa !76
  %9 = load ptr, ptr %4, align 8
  call void @llvm.lifetime.start.p0(i64 8, ptr %7) #3
  %10 = call noundef i32 @_ZN11realclosure7manager3imp23next_transcendental_idxEv(ptr noundef nonnull align 8 dereferenceable(1497) %9)
  %11 = add i32 %10, 1
  call void @_ZN6symbolC2Ej(ptr noundef nonnull align 8 dereferenceable(8) %7, i32 noundef %11)
  call void @llvm.lifetime.start.p0(i64 8, ptr %8) #3
  %12 = call noundef i32 @_ZN11realclosure7manager3imp23next_transcendental_idxEv(ptr noundef nonnull align 8 dereferenceable(1497) %9)
  %13 = add i32 %12, 1
  call void @_ZN6symbolC2Ej(ptr noundef nonnull align 8 dereferenceable(8) %8, i32 noundef %13)
  %14 = load ptr, ptr %5, align 8, !tbaa !80
  %15 = load ptr, ptr %6, align 8, !tbaa !76
  call void @_ZN11realclosure7manager3imp17mk_transcendentalERK6symbolS4_RNS_11mk_intervalERNS_3numE(ptr noundef nonnull align 8 dereferenceable(1497) %9, ptr noundef nonnull align 8 dereferenceable(8) %7, ptr noundef nonnull align 8 dereferenceable(8) %8, ptr noundef nonnull align 8 dereferenceable(8) %14, ptr noundef nonnull align 8 dereferenceable(8) %15)
  call void @llvm.lifetime.end.p0(i64 8, ptr %8) #3
  call void @llvm.lifetime.end.p0(i64 8, ptr %7) #3
  ret void
}

; Function Attrs: mustprogress uwtable
define hidden void @_ZN11realclosure7manager17mk_transcendentalERNS_11mk_intervalERNS_3numE(ptr noundef nonnull align 8 dereferenceable(8) %0, ptr noundef nonnull align 8 dereferenceable(8) %1, ptr noundef nonnull align 8 dereferenceable(8) %2) #6 align 2 {
  %4 = alloca ptr, align 8
  %5 = alloca ptr, align 8
  %6 = alloca ptr, align 8
  store ptr %0, ptr %4, align 8, !tbaa !15
  store ptr %1, ptr %5, align 8, !tbaa !80
  store ptr %2, ptr %6, align 8, !tbaa !76
  %7 = load ptr, ptr %4, align 8
  %8 = getelementptr inbounds nuw %"class.realclosure::manager", ptr %7, i32 0, i32 0
  %9 = load ptr, ptr %8, align 8, !tbaa !25
  %10 = load ptr, ptr %5, align 8, !tbaa !80
  %11 = load ptr, ptr %6, align 8, !tbaa !76
  call void @_ZN11realclosure7manager3imp17mk_transcendentalERNS_11mk_intervalERNS_3numE(ptr noundef nonnull align 8 dereferenceable(1497) %9, ptr noundef nonnull align 8 dereferenceable(8) %10, ptr noundef nonnull align 8 dereferenceable(8) %11)
  ret void
}