; Function Attrs: mustprogress uwtable
define hidden void @_ZN11realclosure7manager17mk_transcendentalERNS_11mk_intervalERNS_3numE(ptr noundef nonnull readonly align 8 captures(none) dereferenceable(8) %0, ptr noundef nonnull align 8 dereferenceable(8) %1, ptr noundef nonnull align 8 dereferenceable(8) %2) local_unnamed_addr #5 align 2 {
  %4 = alloca %class.symbol, align 8
  %5 = alloca %class.symbol, align 8
  %6 = load ptr, ptr %0, align 8, !tbaa !11
  call void @llvm.lifetime.start.p0(i64 8, ptr nonnull %4) #24
  %7 = getelementptr inbounds nuw i8, ptr %6, i64 1328
  %8 = load ptr, ptr %7, align 8, !tbaa !54
  %9 = icmp eq ptr %8, null
  br i1 %9, label %_ZN11realclosure7manager3imp23next_transcendental_idxEv.exit.i, label %_ZNK6vectorIPN11realclosure9extensionELb0EjE5emptyEv.exit.lr.ph.i.i.i

_ZNK6vectorIPN11realclosure9extensionELb0EjE5emptyEv.exit.lr.ph.i.i.i: ; preds = %3
  %10 = getelementptr inbounds i8, ptr %8, i64 -4
  %.promoted.i.i.i = load i32, ptr %10, align 4, !tbaa !3
  %11 = icmp eq i32 %.promoted.i.i.i, 0
  br i1 %11, label %_ZNK6vectorIPN11realclosure9extensionELb0EjE5emptyEv.exit.lr.ph.i.i3.thread.i, label %_ZN6vectorIPN11realclosure9extensionELb0EjE4backEv.exit.preheader.i.i.i

_ZN6vectorIPN11realclosure9extensionELb0EjE4backEv.exit.preheader.i.i.i: ; preds = %_ZNK6vectorIPN11realclosure9extensionELb0EjE5emptyEv.exit.lr.ph.i.i.i
  %12 = zext i32 %.promoted.i.i.i to i64
  %13 = add nsw i64 %12, -1
  %14 = getelementptr inbounds nuw ptr, ptr %8, i64 %13
  %15 = load ptr, ptr %14, align 8, !tbaa !89
  %16 = icmp eq ptr %15, null
  br i1 %16, label %_ZNK6vectorIPN11realclosure9extensionELb0EjE5emptyEv.exit.i.i.i, label %_ZN6vectorIPN11realclosure9extensionELb0EjE4backEv.exit.preheader.i.i5.i

_ZN6vectorIPN11realclosure9extensionELb0EjE4backEv.exit.i.i.i: ; preds = %_ZNK6vectorIPN11realclosure9extensionELb0EjE5emptyEv.exit.i.i.i
  %17 = add nsw i64 %21, -1
  %18 = getelementptr inbounds nuw ptr, ptr %8, i64 %17
  %19 = load ptr, ptr %18, align 8, !tbaa !89
  %20 = icmp eq ptr %19, null
  br i1 %20, label %_ZNK6vectorIPN11realclosure9extensionELb0EjE5emptyEv.exit.i.i.i, label %_ZN6vectorIPN11realclosure9extensionELb0EjE4backEv.exit.i.i._ZNK6vectorIPN11realclosure9extensionELb0EjE5emptyEv.exit.lr.ph.i.i3.loopexit_crit_edge.i

_ZNK6vectorIPN11realclosure9extensionELb0EjE5emptyEv.exit.i.i.i: ; preds = %_ZN6vectorIPN11realclosure9extensionELb0EjE4backEv.exit.preheader.i.i.i, %_ZN6vectorIPN11realclosure9extensionELb0EjE4backEv.exit.i.i.i
  %21 = phi i64 [ %17, %_ZN6vectorIPN11realclosure9extensionELb0EjE4backEv.exit.i.i.i ], [ %13, %_ZN6vectorIPN11realclosure9extensionELb0EjE4backEv.exit.preheader.i.i.i ]
  %indvars.i.i.i = trunc i64 %21 to i32
  %22 = icmp eq i32 %indvars.i.i.i, 0
  br i1 %22, label %_ZNK6vectorIPN11realclosure9extensionELb0EjE5emptyEv.exit.i.i._ZNK6vectorIPN11realclosure9extensionELb0EjE5emptyEv.exit.lr.ph.i.i3.loopexit_crit_edge.i, label %_ZN6vectorIPN11realclosure9extensionELb0EjE4backEv.exit.i.i.i

_ZN11realclosure7manager3imp23next_transcendental_idxEv.exit.i: ; preds = %3
  store ptr inttoptr (i64 9 to ptr), ptr %4, align 8, !tbaa !86
  call void @llvm.lifetime.start.p0(i64 8, ptr nonnull %5) #24
  br label %_ZN11realclosure7manager3imp17mk_transcendentalERNS_11mk_intervalERNS_3numE.exit

_ZNK6vectorIPN11realclosure9extensionELb0EjE5emptyEv.exit.i.i._ZNK6vectorIPN11realclosure9extensionELb0EjE5emptyEv.exit.lr.ph.i.i3.loopexit_crit_edge.i: ; preds = %_ZNK6vectorIPN11realclosure9extensionELb0EjE5emptyEv.exit.i.i.i
  store i32 0, ptr %10, align 4, !tbaa !3
  br label %_ZNK6vectorIPN11realclosure9extensionELb0EjE5emptyEv.exit.lr.ph.i.i3.thread.i

_ZN6vectorIPN11realclosure9extensionELb0EjE4backEv.exit.i.i._ZNK6vectorIPN11realclosure9extensionELb0EjE5emptyEv.exit.lr.ph.i.i3.loopexit_crit_edge.i: ; preds = %_ZN6vectorIPN11realclosure9extensionELb0EjE4backEv.exit.i.i.i
  store i32 %indvars.i.i.i, ptr %10, align 4, !tbaa !3
  %.pre = and i64 %21, 4294967295
  %.pre7 = add nsw i64 %.pre, -1
  br label %_ZN6vectorIPN11realclosure9extensionELb0EjE4backEv.exit.preheader.i.i5.i

_ZNK6vectorIPN11realclosure9extensionELb0EjE5emptyEv.exit.lr.ph.i.i3.thread.i: ; preds = %_ZNK6vectorIPN11realclosure9extensionELb0EjE5emptyEv.exit.i.i._ZNK6vectorIPN11realclosure9extensionELb0EjE5emptyEv.exit.lr.ph.i.i3.loopexit_crit_edge.i, %_ZNK6vectorIPN11realclosure9extensionELb0EjE5emptyEv.exit.lr.ph.i.i.i
  store ptr inttoptr (i64 9 to ptr), ptr %4, align 8, !tbaa !86
  call void @llvm.lifetime.start.p0(i64 8, ptr nonnull %5) #24
  br label %_ZN11realclosure7manager3imp17mk_transcendentalERNS_11mk_intervalERNS_3numE.exit

_ZN6vectorIPN11realclosure9extensionELb0EjE4backEv.exit.preheader.i.i5.i: ; preds = %_ZN6vectorIPN11realclosure9extensionELb0EjE4backEv.exit.i.i._ZNK6vectorIPN11realclosure9extensionELb0EjE5emptyEv.exit.lr.ph.i.i3.loopexit_crit_edge.i, %_ZN6vectorIPN11realclosure9extensionELb0EjE4backEv.exit.preheader.i.i.i
  %.pre-phi8 = phi i64 [ %.pre7, %_ZN6vectorIPN11realclosure9extensionELb0EjE4backEv.exit.i.i._ZNK6vectorIPN11realclosure9extensionELb0EjE5emptyEv.exit.lr.ph.i.i3.loopexit_crit_edge.i ], [ %13, %_ZN6vectorIPN11realclosure9extensionELb0EjE4backEv.exit.preheader.i.i.i ]
  %.promoted.i.i4.i = phi i32 [ %indvars.i.i.i, %_ZN6vectorIPN11realclosure9extensionELb0EjE4backEv.exit.i.i._ZNK6vectorIPN11realclosure9extensionELb0EjE5emptyEv.exit.lr.ph.i.i3.loopexit_crit_edge.i ], [ %.promoted.i.i.i, %_ZN6vectorIPN11realclosure9extensionELb0EjE4backEv.exit.preheader.i.i.i ]
  %23 = add i32 %.promoted.i.i4.i, 1
  %24 = zext i32 %23 to i64
  %25 = shl nuw nsw i64 %24, 3
  %26 = or disjoint i64 %25, 1
  %27 = inttoptr i64 %26 to ptr
  store ptr %27, ptr %4, align 8, !tbaa !86
  call void @llvm.lifetime.start.p0(i64 8, ptr nonnull %5) #24
  %28 = getelementptr inbounds nuw ptr, ptr %8, i64 %.pre-phi8
  %29 = load ptr, ptr %28, align 8, !tbaa !89
  %30 = icmp eq ptr %29, null
  br i1 %30, label %_ZNK6vectorIPN11realclosure9extensionELb0EjE5emptyEv.exit.i.i9.i, label %_ZN11realclosure7manager3imp17mk_transcendentalERNS_11mk_intervalERNS_3numE.exit

_ZN6vectorIPN11realclosure9extensionELb0EjE4backEv.exit.i.i6.i: ; preds = %_ZNK6vectorIPN11realclosure9extensionELb0EjE5emptyEv.exit.i.i9.i
  %31 = add nsw i64 %35, -1
  %32 = getelementptr inbounds nuw ptr, ptr %8, i64 %31
  %33 = load ptr, ptr %32, align 8, !tbaa !89
  %34 = icmp eq ptr %33, null
  br i1 %34, label %_ZNK6vectorIPN11realclosure9extensionELb0EjE5emptyEv.exit.i.i9.i, label %_ZN6vectorIPN11realclosure9extensionELb0EjE4backEv.exit.i.i6._ZN11realclosure7manager3imp23next_transcendental_idxEv.exit11.loopexit_crit_edge.i

_ZNK6vectorIPN11realclosure9extensionELb0EjE5emptyEv.exit.i.i9.i: ; preds = %_ZN6vectorIPN11realclosure9extensionELb0EjE4backEv.exit.preheader.i.i5.i, %_ZN6vectorIPN11realclosure9extensionELb0EjE4backEv.exit.i.i6.i
  %35 = phi i64 [ %31, %_ZN6vectorIPN11realclosure9extensionELb0EjE4backEv.exit.i.i6.i ], [ %.pre-phi8, %_ZN6vectorIPN11realclosure9extensionELb0EjE4backEv.exit.preheader.i.i5.i ]
  %indvars.i.i10.i = trunc i64 %35 to i32
  %36 = icmp eq i32 %indvars.i.i10.i, 0
  br i1 %36, label %_ZNK6vectorIPN11realclosure9extensionELb0EjE5emptyEv.exit.i.i9._ZN11realclosure7manager3imp23next_transcendental_idxEv.exit11.loopexit_crit_edge.i, label %_ZN6vectorIPN11realclosure9extensionELb0EjE4backEv.exit.i.i6.i

_ZNK6vectorIPN11realclosure9extensionELb0EjE5emptyEv.exit.i.i9._ZN11realclosure7manager3imp23next_transcendental_idxEv.exit11.loopexit_crit_edge.i: ; preds = %_ZNK6vectorIPN11realclosure9extensionELb0EjE5emptyEv.exit.i.i9.i
  store i32 0, ptr %10, align 4, !tbaa !3
  br label %_ZN11realclosure7manager3imp17mk_transcendentalERNS_11mk_intervalERNS_3numE.exit

_ZN6vectorIPN11realclosure9extensionELb0EjE4backEv.exit.i.i6._ZN11realclosure7manager3imp23next_transcendental_idxEv.exit11.loopexit_crit_edge.i: ; preds = %_ZN6vectorIPN11realclosure9extensionELb0EjE4backEv.exit.i.i6.i
  store i32 %indvars.i.i10.i, ptr %10, align 4, !tbaa !3
  br label %_ZN11realclosure7manager3imp17mk_transcendentalERNS_11mk_intervalERNS_3numE.exit

_ZN11realclosure7manager3imp17mk_transcendentalERNS_11mk_intervalERNS_3numE.exit: ; preds = %_ZN11realclosure7manager3imp23next_transcendental_idxEv.exit.i, %_ZNK6vectorIPN11realclosure9extensionELb0EjE5emptyEv.exit.lr.ph.i.i3.thread.i, %_ZN6vectorIPN11realclosure9extensionELb0EjE4backEv.exit.preheader.i.i5.i, %_ZNK6vectorIPN11realclosure9extensionELb0EjE5emptyEv.exit.i.i9._ZN11realclosure7manager3imp23next_transcendental_idxEv.exit11.loopexit_crit_edge.i, %_ZN6vectorIPN11realclosure9extensionELb0EjE4backEv.exit.i.i6._ZN11realclosure7manager3imp23next_transcendental_idxEv.exit11.loopexit_crit_edge.i
  %.0.i.i8.i = phi i32 [ 0, %_ZN11realclosure7manager3imp23next_transcendental_idxEv.exit.i ], [ 0, %_ZNK6vectorIPN11realclosure9extensionELb0EjE5emptyEv.exit.i.i9._ZN11realclosure7manager3imp23next_transcendental_idxEv.exit11.loopexit_crit_edge.i ], [ %indvars.i.i10.i, %_ZN6vectorIPN11realclosure9extensionELb0EjE4backEv.exit.i.i6._ZN11realclosure7manager3imp23next_transcendental_idxEv.exit11.loopexit_crit_edge.i ], [ %.promoted.i.i4.i, %_ZN6vectorIPN11realclosure9extensionELb0EjE4backEv.exit.preheader.i.i5.i ], [ 0, %_ZNK6vectorIPN11realclosure9extensionELb0EjE5emptyEv.exit.lr.ph.i.i3.thread.i ]
  %37 = add i32 %.0.i.i8.i, 1
  %38 = zext i32 %37 to i64
  %39 = shl nuw nsw i64 %38, 3
  %40 = or disjoint i64 %39, 1
  %41 = inttoptr i64 %40 to ptr
  store ptr %41, ptr %5, align 8, !tbaa !86
  call void @_ZN11realclosure7manager3imp17mk_transcendentalERK6symbolS4_RNS_11mk_intervalERNS_3numE(ptr noundef nonnull align 8 dereferenceable(1497) %6, ptr noundef nonnull align 8 dereferenceable(8) %4, ptr noundef nonnull align 8 dereferenceable(8) %5, ptr noundef nonnull align 8 dereferenceable(8) %1, ptr noundef nonnull align 8 dereferenceable(8) %2)
  call void @llvm.lifetime.end.p0(i64 8, ptr nonnull %5) #24
  call void @llvm.lifetime.end.p0(i64 8, ptr nonnull %4) #24
  ret void
}